target datalayout = "e-m:e-p270:32:32-p271:32:32-p272:64:64-i64:64-i128:128-f80:128-n8:16:32:64-S128"
target triple = "x86_64-pc-linux-gnu"

%struct.gmx_conect_t = type { i32, ptr }
%struct.gmx_conection_t = type { i32, i32 }

@.str.11 = private unnamed_addr constant [7 x i8] c"CONECT\00", align 1
@.str.39 = private unnamed_addr constant [11 x i8] c"%6s%5d%5d\0A\00", align 1

; Function Attrs: mustprogress nounwind uwtable
define void @_Z15gmx_conect_dumpP8_IO_FILEP12gmx_conect_t(ptr noundef %0, ptr noundef %1) #1 {
  %3 = alloca ptr, align 8
  %4 = alloca ptr, align 8
  %5 = alloca ptr, align 8
  %6 = alloca i32, align 4
  store ptr %0, ptr %3, align 8, !tbaa !13
  store ptr %1, ptr %4, align 8, !tbaa !28
  call void @llvm.lifetime.start.p0(i64 8, ptr %5) #15
  %7 = load ptr, ptr %4, align 8, !tbaa !28
  store ptr %7, ptr %5, align 8, !tbaa !28
  call void @llvm.lifetime.start.p0(i64 4, ptr %6) #15
  store i32 0, ptr %6, align 4, !tbaa !21
  br label %8

8:                                                ; preds = %35, %2
  %9 = load i32, ptr %6, align 4, !tbaa !21
  %10 = load ptr, ptr %5, align 8, !tbaa !28
  %11 = getelementptr inbounds nuw %struct.gmx_conect_t, ptr %10, i32 0, i32 0
  %12 = load i32, ptr %11, align 8, !tbaa !67
  %13 = icmp slt i32 %9, %12
  br i1 %13, label %14, label %38

14:                                               ; preds = %8
  %15 = load ptr, ptr %3, align 8, !tbaa !13
  %16 = load ptr, ptr %5, align 8, !tbaa !28
  %17 = getelementptr inbounds nuw %struct.gmx_conect_t, ptr %16, i32 0, i32 1
  %18 = load ptr, ptr %17, align 8, !tbaa !69
  %19 = load i32, ptr %6, align 4, !tbaa !21
  %20 = sext i32 %19 to i64
  %21 = getelementptr inbounds %struct.gmx_conection_t, ptr %18, i64 %20
  %22 = getelementptr inbounds nuw %struct.gmx_conection_t, ptr %21, i32 0, i32 0
  %23 = load i32, ptr %22, align 4, !tbaa !70
  %24 = add nsw i32 %23, 1
  %25 = load ptr, ptr %5, align 8, !tbaa !28
  %26 = getelementptr inbounds nuw %struct.gmx_conect_t, ptr %25, i32 0, i32 1
  %27 = load ptr, ptr %26, align 8, !tbaa !69
  %28 = load i32, ptr %6, align 4, !tbaa !21
  %29 = sext i32 %28 to i64
  %30 = getelementptr inbounds %struct.gmx_conection_t, ptr %27, i64 %29
  %31 = getelementptr inbounds nuw %struct.gmx_conection_t, ptr %30, i32 0, i32 1
  %32 = load i32, ptr %31, align 4, !tbaa !72
  %33 = add nsw i32 %32, 1
  %34 = call i32 (ptr, ptr, ...) @fprintf(ptr noundef %15, ptr noundef @.str.39, ptr noundef @.str.11, i32 noundef %24, i32 noundef %33) #15
  br label %35

35:                                               ; preds = %14
  %36 = load i32, ptr %6, align 4, !tbaa !21
  %37 = add nsw i32 %36, 1
  store i32 %37, ptr %6, align 4, !tbaa !21
  br label %8, !llvm.loop !135

38:                                               ; preds = %8
  call void @llvm.lifetime.end.p0(i64 4, ptr %6) #15
  call void @llvm.lifetime.end.p0(i64 8, ptr %5) #15
  ret void
}