; Function Attrs: mustprogress nofree nounwind uwtable
define void @_Z15gmx_conect_dumpP8_IO_FILEP12gmx_conect_t(ptr noundef captures(none) %0, ptr noundef readonly captures(none) %1) local_unnamed_addr #17 {
  %3 = load i32, ptr %1, align 8, !tbaa !60
  %4 = icmp sgt i32 %3, 0
  br i1 %4, label %.lr.ph, label %._crit_edge

.lr.ph:                                           ; preds = %2
  %5 = getelementptr inbounds nuw i8, ptr %1, i64 8
  br label %6

6:                                                ; preds = %.lr.ph, %6
  %indvars.iv = phi i64 [ 0, %.lr.ph ], [ %indvars.iv.next, %6 ]
  %7 = load ptr, ptr %5, align 8, !tbaa !62
  %8 = getelementptr inbounds nuw %struct.gmx_conection_t, ptr %7, i64 %indvars.iv
  %9 = load i32, ptr %8, align 4, !tbaa !63
  %10 = add nsw i32 %9, 1
  %11 = getelementptr inbounds nuw i8, ptr %8, i64 4
  %12 = load i32, ptr %11, align 4, !tbaa !65
  %13 = add nsw i32 %12, 1
  %14 = tail call i32 (ptr, ptr, ...) @fprintf(ptr noundef %0, ptr noundef nonnull @.str.39, ptr noundef nonnull @.str.11, i32 noundef %10, i32 noundef %13) #28
  %indvars.iv.next = add nuw nsw i64 %indvars.iv, 1
  %15 = load i32, ptr %1, align 8, !tbaa !60
  %16 = sext i32 %15 to i64
  %17 = icmp slt i64 %indvars.iv.next, %16
  br i1 %17, label %6, label %._crit_edge, !llvm.loop !76

._crit_edge:                                      ; preds = %6, %2
  ret void
}